target datalayout = "e-m:e-p270:32:32-p271:32:32-p272:64:64-i64:64-i128:128-f80:128-n8:16:32:64-S128"
target triple = "x86_64-pc-linux-gnu"

%struct.pmix_class_t = type { ptr, ptr, ptr, ptr, i32, i32, ptr, ptr, i64 }
%union.pthread_mutex_t = type { %struct.__pthread_mutex_s }
%struct.__pthread_mutex_s = type { i32, i32, i32, i32, i32, i16, i16, %struct.__pthread_internal_list }
%struct.__pthread_internal_list = type { ptr, ptr }
%struct.pmix_tma = type { ptr, ptr, ptr, ptr, ptr, ptr, ptr, ptr }
%struct.pmix_pointer_array_t = type { %struct.pmix_object_t, i32, i32, i32, i32, i32, ptr, ptr }
%struct.pmix_object_t = type { %union.pthread_mutex_t, ptr, i32, %struct.pmix_tma }
%struct.pmix_mca_base_var_t = type { %struct.pmix_object_t, i32, i32, i32, ptr, ptr, ptr, ptr, %struct.pmix_value_array_t, i32, i32, i32, ptr, ptr, ptr, i32, ptr, ptr }
%struct.pmix_value_array_t = type { %struct.pmix_object_t, ptr, i64, i64, i64 }
%struct.pmix_mca_base_var_enum_t = type { %struct.pmix_object_t, i8, ptr, ptr, ptr, ptr, ptr, ptr, i32, ptr }

@pmix_mca_base_var_initialized = global i8 0, align 1
@pmix_mca_base_vars = internal global %struct.pmix_pointer_array_t zeroinitializer, align 8
@.str.71 = private unnamed_addr constant [21 x i8] c"pthread_mutex_lock()\00", align 1

; Function Attrs: inlinehint nounwind uwtable
define internal ptr @pmix_pointer_array_get_item(ptr noundef %0, i32 noundef %1) #6 {
  %3 = alloca ptr, align 8
  %4 = alloca ptr, align 8
  %5 = alloca i32, align 4
  %6 = alloca ptr, align 8
  %7 = alloca i32, align 4
  store ptr %0, ptr %4, align 8, !tbaa !90
  store i32 %1, ptr %5, align 4, !tbaa !18
  call void @llvm.lifetime.start.p0(i64 8, ptr %6) #15
  %8 = load i32, ptr %5, align 4, !tbaa !18
  %9 = icmp sgt i32 0, %8
  br i1 %9, label %16, label %10

10:                                               ; preds = %2
  %11 = load ptr, ptr %4, align 8, !tbaa !90
  %12 = getelementptr inbounds nuw %struct.pmix_pointer_array_t, ptr %11, i32 0, i32 3
  %13 = load i32, ptr %12, align 8, !tbaa !92
  %14 = load i32, ptr %5, align 4, !tbaa !18
  %15 = icmp sle i32 %13, %14
  br label %16

16:                                               ; preds = %10, %2
  %17 = phi i1 [ true, %2 ], [ %15, %10 ]
  %18 = xor i1 %17, true
  %19 = xor i1 %18, true
  %20 = zext i1 %19 to i32
  %21 = sext i32 %20 to i64
  %22 = call i64 @llvm.expect.i64(i64 %21, i64 0)
  %23 = icmp ne i64 %22, 0
  br i1 %23, label %24, label %25

24:                                               ; preds = %16
  store ptr null, ptr %3, align 8
  store i32 1, ptr %7, align 4
  br label %34

25:                                               ; preds = %16
  %26 = load ptr, ptr %4, align 8, !tbaa !90
  %27 = getelementptr inbounds nuw %struct.pmix_pointer_array_t, ptr %26, i32 0, i32 7
  %28 = load ptr, ptr %27, align 8, !tbaa !95
  %29 = load i32, ptr %5, align 4, !tbaa !18
  %30 = sext i32 %29 to i64
  %31 = getelementptr inbounds ptr, ptr %28, i64 %30
  %32 = load ptr, ptr %31, align 8, !tbaa !65
  store ptr %32, ptr %6, align 8, !tbaa !65
  %33 = load ptr, ptr %6, align 8, !tbaa !65
  store ptr %33, ptr %3, align 8
  store i32 1, ptr %7, align 4
  br label %34

34:                                               ; preds = %25, %24
  call void @llvm.lifetime.end.p0(i64 8, ptr %6) #15
  %35 = load ptr, ptr %3, align 8
  ret ptr %35
}

; Function Attrs: inlinehint nounwind uwtable
define internal void @pmix_tma_free(ptr noundef %0, ptr noundef %1) #6 {
  %3 = alloca ptr, align 8
  %4 = alloca ptr, align 8
  store ptr %0, ptr %3, align 8, !tbaa !55
  store ptr %1, ptr %4, align 8, !tbaa !65
  %5 = load ptr, ptr %3, align 8, !tbaa !55
  %6 = icmp ne ptr null, %5
  br i1 %6, label %7, label %13

7:                                                ; preds = %2
  %8 = load ptr, ptr %3, align 8, !tbaa !55
  %9 = getelementptr inbounds nuw %struct.pmix_tma, ptr %8, i32 0, i32 5
  %10 = load ptr, ptr %9, align 8, !tbaa !84
  %11 = load ptr, ptr %3, align 8, !tbaa !55
  %12 = load ptr, ptr %4, align 8, !tbaa !65
  call void %10(ptr noundef %11, ptr noundef %12)
  br label %15

13:                                               ; preds = %2
  %14 = load ptr, ptr %4, align 8, !tbaa !65
  call void @free(ptr noundef %14) #15
  br label %15

15:                                               ; preds = %13, %7
  ret void
}

; Function Attrs: inlinehint nounwind uwtable
define internal void @pmix_obj_run_destructors(ptr noundef %0) #6 {
  %2 = alloca ptr, align 8
  %3 = alloca ptr, align 8
  store ptr %0, ptr %2, align 8, !tbaa !32
  call void @llvm.lifetime.start.p0(i64 8, ptr %3) #15
  %4 = load ptr, ptr %2, align 8, !tbaa !32
  %5 = getelementptr inbounds nuw %struct.pmix_object_t, ptr %4, i32 0, i32 1
  %6 = load ptr, ptr %5, align 8, !tbaa !21
  %7 = getelementptr inbounds nuw %struct.pmix_class_t, ptr %6, i32 0, i32 7
  %8 = load ptr, ptr %7, align 8, !tbaa !82
  store ptr %8, ptr %3, align 8, !tbaa !65
  br label %9

9:                                                ; preds = %13, %1
  %10 = load ptr, ptr %3, align 8, !tbaa !65
  %11 = load ptr, ptr %10, align 8, !tbaa !65
  %12 = icmp ne ptr null, %11
  br i1 %12, label %13, label %19

13:                                               ; preds = %9
  %14 = load ptr, ptr %3, align 8, !tbaa !65
  %15 = load ptr, ptr %14, align 8, !tbaa !65
  %16 = load ptr, ptr %2, align 8, !tbaa !32
  call void %15(ptr noundef %16)
  %17 = load ptr, ptr %3, align 8, !tbaa !65
  %18 = getelementptr inbounds nuw ptr, ptr %17, i32 1
  store ptr %18, ptr %3, align 8, !tbaa !65
  br label %9, !llvm.loop !83

19:                                               ; preds = %9
  call void @llvm.lifetime.end.p0(i64 8, ptr %3) #15
  ret void
}

; Function Attrs: alwaysinline nounwind uwtable
define internal i32 @pmix_obj_update(ptr noundef %0, i32 noundef %1) #8 {
  %3 = alloca ptr, align 8
  %4 = alloca i32, align 4
  %5 = alloca i32, align 4
  store ptr %0, ptr %3, align 8, !tbaa !32
  store i32 %1, ptr %4, align 4, !tbaa !18
  call void @llvm.lifetime.start.p0(i64 4, ptr %5) #15
  %6 = load ptr, ptr %3, align 8, !tbaa !32
  %7 = getelementptr inbounds nuw %struct.pmix_object_t, ptr %6, i32 0, i32 0
  %8 = call i32 @pthread_mutex_lock(ptr noundef %7) #15
  store i32 %8, ptr %5, align 4, !tbaa !18
  %9 = load i32, ptr %5, align 4, !tbaa !18
  %10 = icmp eq i32 %9, 35
  br i1 %10, label %11, label %14

11:                                               ; preds = %2
  %12 = load i32, ptr %5, align 4, !tbaa !18
  %13 = call ptr @__errno_location() #19
  store i32 %12, ptr %13, align 4, !tbaa !18
  call void @perror(ptr noundef @.str.71)
  call void @abort() #20
  unreachable

14:                                               ; preds = %2
  %15 = load i32, ptr %4, align 4, !tbaa !18
  %16 = load ptr, ptr %3, align 8, !tbaa !32
  %17 = getelementptr inbounds nuw %struct.pmix_object_t, ptr %16, i32 0, i32 2
  %18 = load i32, ptr %17, align 8, !tbaa !22
  %19 = add nsw i32 %18, %15
  store i32 %19, ptr %17, align 8, !tbaa !22
  store i32 %19, ptr %5, align 4, !tbaa !18
  %20 = load ptr, ptr %3, align 8, !tbaa !32
  %21 = getelementptr inbounds nuw %struct.pmix_object_t, ptr %20, i32 0, i32 0
  %22 = call i32 @pthread_mutex_unlock(ptr noundef %21) #15
  %23 = load i32, ptr %5, align 4, !tbaa !18
  call void @llvm.lifetime.end.p0(i64 4, ptr %5) #15
  ret i32 %23
}

; Function Attrs: nounwind uwtable
define internal i32 @var_get(i32 noundef %0, ptr noundef %1, i1 noundef zeroext %2) #0 {
  %4 = alloca i32, align 4
  %5 = alloca i32, align 4
  %6 = alloca ptr, align 8
  %7 = alloca i8, align 1
  %8 = alloca ptr, align 8
  %9 = alloca i32, align 4
  store i32 %0, ptr %5, align 4, !tbaa !18
  store ptr %1, ptr %6, align 8, !tbaa !76
  %10 = zext i1 %2 to i8
  store i8 %10, ptr %7, align 1, !tbaa !54
  call void @llvm.lifetime.start.p0(i64 8, ptr %8) #15
  %11 = load ptr, ptr %6, align 8, !tbaa !76
  %12 = icmp ne ptr %11, null
  br i1 %12, label %13, label %15

13:                                               ; preds = %3
  %14 = load ptr, ptr %6, align 8, !tbaa !76
  store ptr null, ptr %14, align 8, !tbaa !3
  br label %15

15:                                               ; preds = %13, %3
  %16 = load i8, ptr @pmix_mca_base_var_initialized, align 1, !tbaa !54, !range !30, !noundef !31
  %17 = trunc i8 %16 to i1
  br i1 %17, label %19, label %18

18:                                               ; preds = %15
  store i32 -1, ptr %4, align 4
  store i32 1, ptr %9, align 4
  br label %52

19:                                               ; preds = %15
  %20 = load i32, ptr %5, align 4, !tbaa !18
  %21 = icmp slt i32 %20, 0
  br i1 %21, label %22, label %23

22:                                               ; preds = %19
  store i32 -27, ptr %4, align 4
  store i32 1, ptr %9, align 4
  br label %52

23:                                               ; preds = %19
  %24 = load i32, ptr %5, align 4, !tbaa !18
  %25 = call ptr @pmix_pointer_array_get_item(ptr noundef @pmix_mca_base_vars, i32 noundef %24)
  store ptr %25, ptr %8, align 8, !tbaa !3
  %26 = load ptr, ptr %8, align 8, !tbaa !3
  %27 = icmp eq ptr null, %26
  br i1 %27, label %28, label %29

28:                                               ; preds = %23
  store i32 -27, ptr %4, align 4
  store i32 1, ptr %9, align 4
  br label %52

29:                                               ; preds = %23
  %30 = load ptr, ptr %8, align 8, !tbaa !3
  %31 = getelementptr inbounds %struct.pmix_mca_base_var_t, ptr %30, i64 0
  %32 = getelementptr inbounds nuw %struct.pmix_mca_base_var_t, ptr %31, i32 0, i32 9
  %33 = load i32, ptr %32, align 8, !tbaa !71
  %34 = and i32 %33, 131072
  %35 = icmp ne i32 %34, 0
  br i1 %35, label %36, label %45

36:                                               ; preds = %29
  %37 = load i8, ptr %7, align 1, !tbaa !54, !range !30, !noundef !31
  %38 = trunc i8 %37 to i1
  br i1 %38, label %39, label %45

39:                                               ; preds = %36
  %40 = load ptr, ptr %8, align 8, !tbaa !3
  %41 = getelementptr inbounds nuw %struct.pmix_mca_base_var_t, ptr %40, i32 0, i32 11
  %42 = load i32, ptr %41, align 8, !tbaa !78
  %43 = load ptr, ptr %6, align 8, !tbaa !76
  %44 = call i32 @var_get(i32 noundef %42, ptr noundef %43, i1 noundef zeroext false)
  store i32 %44, ptr %4, align 4
  store i32 1, ptr %9, align 4
  br label %52

45:                                               ; preds = %36, %29
  %46 = load ptr, ptr %6, align 8, !tbaa !76
  %47 = icmp ne ptr %46, null
  br i1 %47, label %48, label %51

48:                                               ; preds = %45
  %49 = load ptr, ptr %8, align 8, !tbaa !3
  %50 = load ptr, ptr %6, align 8, !tbaa !76
  store ptr %49, ptr %50, align 8, !tbaa !3
  br label %51

51:                                               ; preds = %48, %45
  store i32 0, ptr %4, align 4
  store i32 1, ptr %9, align 4
  br label %52

52:                                               ; preds = %51, %39, %28, %22, %18
  call void @llvm.lifetime.end.p0(i64 8, ptr %8) #15
  %53 = load i32, ptr %4, align 4
  ret i32 %53
}

; Function Attrs: nounwind uwtable
define i32 @pmix_mca_base_var_deregister(i32 noundef %0) #0 {
  %2 = alloca i32, align 4
  %3 = alloca i32, align 4
  %4 = alloca ptr, align 8
  %5 = alloca i32, align 4
  %6 = alloca i32, align 4
  %7 = alloca ptr, align 8
  store i32 %0, ptr %3, align 4, !tbaa !18
  call void @llvm.lifetime.start.p0(i64 8, ptr %4) #15
  call void @llvm.lifetime.start.p0(i64 4, ptr %5) #15
  %8 = load i32, ptr %3, align 4, !tbaa !18
  %9 = call i32 @var_get(i32 noundef %8, ptr noundef %4, i1 noundef zeroext false)
  store i32 %9, ptr %5, align 4, !tbaa !18
  %10 = load i32, ptr %5, align 4, !tbaa !18
  %11 = icmp ne i32 0, %10
  br i1 %11, label %12, label %14

12:                                               ; preds = %1
  %13 = load i32, ptr %5, align 4, !tbaa !18
  store i32 %13, ptr %2, align 4
  store i32 1, ptr %6, align 4
  br label %106

14:                                               ; preds = %1
  %15 = load ptr, ptr %4, align 8, !tbaa !3
  %16 = getelementptr inbounds %struct.pmix_mca_base_var_t, ptr %15, i64 0
  %17 = getelementptr inbounds nuw %struct.pmix_mca_base_var_t, ptr %16, i32 0, i32 9
  %18 = load i32, ptr %17, align 8, !tbaa !71
  %19 = and i32 %18, 65536
  %20 = icmp ne i32 %19, 0
  br i1 %20, label %22, label %21

21:                                               ; preds = %14
  store i32 -27, ptr %2, align 4
  store i32 1, ptr %6, align 4
  br label %106

22:                                               ; preds = %14
  %23 = load ptr, ptr %4, align 8, !tbaa !3
  %24 = getelementptr inbounds nuw %struct.pmix_mca_base_var_t, ptr %23, i32 0, i32 9
  %25 = load i32, ptr %24, align 8, !tbaa !71
  %26 = and i32 %25, -65537
  store i32 %26, ptr %24, align 8, !tbaa !71
  %27 = load ptr, ptr %4, align 8, !tbaa !3
  %28 = getelementptr inbounds nuw %struct.pmix_mca_base_var_t, ptr %27, i32 0, i32 9
  %29 = load i32, ptr %28, align 8, !tbaa !71
  %30 = and i32 131072, %29
  %31 = icmp ne i32 %30, 0
  br i1 %31, label %32, label %33

32:                                               ; preds = %22
  store i32 0, ptr %2, align 4
  store i32 1, ptr %6, align 4
  br label %106

33:                                               ; preds = %22
  %34 = load ptr, ptr %4, align 8, !tbaa !3
  %35 = getelementptr inbounds nuw %struct.pmix_mca_base_var_t, ptr %34, i32 0, i32 3
  %36 = load i32, ptr %35, align 8, !tbaa !8
  %37 = icmp eq i32 5, %36
  br i1 %37, label %43, label %38

38:                                               ; preds = %33
  %39 = load ptr, ptr %4, align 8, !tbaa !3
  %40 = getelementptr inbounds nuw %struct.pmix_mca_base_var_t, ptr %39, i32 0, i32 3
  %41 = load i32, ptr %40, align 8, !tbaa !8
  %42 = icmp eq i32 6, %41
  br i1 %42, label %43, label %57

43:                                               ; preds = %38, %33
  %44 = load ptr, ptr %4, align 8, !tbaa !3
  %45 = getelementptr inbounds nuw %struct.pmix_mca_base_var_t, ptr %44, i32 0, i32 16
  %46 = load ptr, ptr %45, align 8, !tbaa !23
  %47 = load ptr, ptr %46, align 8, !tbaa !24
  %48 = icmp ne ptr %47, null
  br i1 %48, label %49, label %57

49:                                               ; preds = %43
  %50 = load ptr, ptr %4, align 8, !tbaa !3
  %51 = getelementptr inbounds nuw %struct.pmix_mca_base_var_t, ptr %50, i32 0, i32 16
  %52 = load ptr, ptr %51, align 8, !tbaa !23
  %53 = load ptr, ptr %52, align 8, !tbaa !24
  call void @free(ptr noundef %53) #15
  %54 = load ptr, ptr %4, align 8, !tbaa !3
  %55 = getelementptr inbounds nuw %struct.pmix_mca_base_var_t, ptr %54, i32 0, i32 16
  %56 = load ptr, ptr %55, align 8, !tbaa !23
  store ptr null, ptr %56, align 8, !tbaa !24
  br label %101

57:                                               ; preds = %43, %38
  %58 = load ptr, ptr %4, align 8, !tbaa !3
  %59 = getelementptr inbounds nuw %struct.pmix_mca_base_var_t, ptr %58, i32 0, i32 14
  %60 = load ptr, ptr %59, align 8, !tbaa !25
  %61 = icmp ne ptr %60, null
  br i1 %61, label %62, label %100

62:                                               ; preds = %57
  %63 = load ptr, ptr %4, align 8, !tbaa !3
  %64 = getelementptr inbounds nuw %struct.pmix_mca_base_var_t, ptr %63, i32 0, i32 14
  %65 = load ptr, ptr %64, align 8, !tbaa !25
  %66 = getelementptr inbounds nuw %struct.pmix_mca_base_var_enum_t, ptr %65, i32 0, i32 1
  %67 = load i8, ptr %66, align 8, !tbaa !26, !range !30, !noundef !31
  %68 = trunc i8 %67 to i1
  br i1 %68, label %100, label %69

69:                                               ; preds = %62
  br label %70

70:                                               ; preds = %69
  call void @llvm.lifetime.start.p0(i64 8, ptr %7) #15
  %71 = load ptr, ptr %4, align 8, !tbaa !3
  %72 = getelementptr inbounds nuw %struct.pmix_mca_base_var_t, ptr %71, i32 0, i32 14
  %73 = load ptr, ptr %72, align 8, !tbaa !25
  store ptr %73, ptr %7, align 8, !tbaa !32
  %74 = load ptr, ptr %7, align 8, !tbaa !32
  %75 = call i32 @pmix_obj_update(ptr noundef %74, i32 noundef -1)
  %76 = icmp eq i32 0, %75
  br i1 %76, label %77, label %97

77:                                               ; preds = %70
  %78 = load ptr, ptr %7, align 8, !tbaa !32
  call void @pmix_obj_run_destructors(ptr noundef %78)
  %79 = load ptr, ptr %7, align 8, !tbaa !32
  %80 = getelementptr inbounds nuw %struct.pmix_object_t, ptr %79, i32 0, i32 3
  %81 = getelementptr inbounds nuw %struct.pmix_tma, ptr %80, i32 0, i32 5
  %82 = load ptr, ptr %81, align 8, !tbaa !34
  %83 = icmp ne ptr null, %82
  br i1 %83, label %84, label %90

84:                                               ; preds = %77
  %85 = load ptr, ptr %7, align 8, !tbaa !32
  %86 = getelementptr inbounds nuw %struct.pmix_object_t, ptr %85, i32 0, i32 3
  %87 = load ptr, ptr %4, align 8, !tbaa !3
  %88 = getelementptr inbounds nuw %struct.pmix_mca_base_var_t, ptr %87, i32 0, i32 14
  %89 = load ptr, ptr %88, align 8, !tbaa !25
  call void @pmix_tma_free(ptr noundef %86, ptr noundef %89)
  br label %94

90:                                               ; preds = %77
  %91 = load ptr, ptr %4, align 8, !tbaa !3
  %92 = getelementptr inbounds nuw %struct.pmix_mca_base_var_t, ptr %91, i32 0, i32 14
  %93 = load ptr, ptr %92, align 8, !tbaa !25
  call void @free(ptr noundef %93) #15
  br label %94

94:                                               ; preds = %90, %84
  %95 = load ptr, ptr %4, align 8, !tbaa !3
  %96 = getelementptr inbounds nuw %struct.pmix_mca_base_var_t, ptr %95, i32 0, i32 14
  store ptr null, ptr %96, align 8, !tbaa !25
  br label %97

97:                                               ; preds = %94, %70
  call void @llvm.lifetime.end.p0(i64 8, ptr %7) #15
  br label %98

98:                                               ; preds = %97
  br label %99

99:                                               ; preds = %98
  br label %100

100:                                              ; preds = %99, %62, %57
  br label %101

101:                                              ; preds = %100, %49
  %102 = load ptr, ptr %4, align 8, !tbaa !3
  %103 = getelementptr inbounds nuw %struct.pmix_mca_base_var_t, ptr %102, i32 0, i32 14
  store ptr null, ptr %103, align 8, !tbaa !25
  %104 = load ptr, ptr %4, align 8, !tbaa !3
  %105 = getelementptr inbounds nuw %struct.pmix_mca_base_var_t, ptr %104, i32 0, i32 16
  store ptr null, ptr %105, align 8, !tbaa !23
  store i32 0, ptr %2, align 4
  store i32 1, ptr %6, align 4
  br label %106

106:                                              ; preds = %101, %32, %21, %12
  call void @llvm.lifetime.end.p0(i64 4, ptr %5) #15
  call void @llvm.lifetime.end.p0(i64 8, ptr %4) #15
  %107 = load i32, ptr %2, align 4
  ret i32 %107
}