; Function Attrs: nounwind uwtable
define range(i32 -27, 1) i32 @pmix_mca_base_var_deregister(i32 noundef %0) local_unnamed_addr #0 {
  %2 = load i8, ptr @pmix_mca_base_var_initialized, align 1, !tbaa !54, !range !36, !noundef !37
  %3 = trunc nuw i8 %2 to i1
  br i1 %3, label %4, label %var_get.exit.thread

4:                                                ; preds = %1
  %5 = icmp slt i32 %0, 0
  %6 = load i32, ptr getelementptr inbounds nuw (i8, ptr @pmix_mca_base_vars, i64 128), align 8
  %7 = icmp sle i32 %6, %0
  %or.cond.i = select i1 %5, i1 true, i1 %7
  br i1 %or.cond.i, label %var_get.exit.thread, label %pmix_pointer_array_get_item.exit.i, !prof !63

pmix_pointer_array_get_item.exit.i:               ; preds = %4
  %8 = load ptr, ptr getelementptr inbounds nuw (i8, ptr @pmix_mca_base_vars, i64 152), align 8, !tbaa !58
  %9 = zext nneg i32 %0 to i64
  %10 = getelementptr inbounds nuw ptr, ptr %8, i64 %9
  %11 = load ptr, ptr %10, align 8, !tbaa !22
  %12 = icmp eq ptr %11, null
  br i1 %12, label %var_get.exit.thread, label %13

13:                                               ; preds = %pmix_pointer_array_get_item.exit.i
  %14 = getelementptr inbounds nuw i8, ptr %11, i64 320
  %15 = load i32, ptr %14, align 8, !tbaa !61
  %16 = and i32 %15, 65536
  %.not11 = icmp eq i32 %16, 0
  br i1 %.not11, label %var_get.exit.thread, label %17

17:                                               ; preds = %13
  %18 = and i32 %15, -65537
  store i32 %18, ptr %14, align 8, !tbaa !61
  %19 = and i32 %15, 131072
  %.not12 = icmp eq i32 %19, 0
  br i1 %.not12, label %20, label %var_get.exit.thread

20:                                               ; preds = %17
  %21 = getelementptr inbounds nuw i8, ptr %11, i64 128
  %22 = load i32, ptr %21, align 8, !tbaa !3
  %.off = add i32 %22, -5
  %switch = icmp ult i32 %.off, 2
  br i1 %switch, label %23, label %29

23:                                               ; preds = %20
  %24 = getelementptr inbounds nuw i8, ptr %11, i64 368
  %25 = load ptr, ptr %24, align 8, !tbaa !29
  %26 = load ptr, ptr %25, align 8, !tbaa !30
  %.not13 = icmp eq ptr %26, null
  br i1 %.not13, label %29, label %27

27:                                               ; preds = %23
  tail call void @free(ptr noundef nonnull %26) #25
  %28 = load ptr, ptr %24, align 8, !tbaa !29
  store ptr null, ptr %28, align 8, !tbaa !30
  br label %62

29:                                               ; preds = %20, %23
  %30 = getelementptr inbounds nuw i8, ptr %11, i64 352
  %31 = load ptr, ptr %30, align 8, !tbaa !31
  %.not14 = icmp eq ptr %31, null
  br i1 %.not14, label %62, label %32

32:                                               ; preds = %29
  %33 = getelementptr inbounds nuw i8, ptr %31, i64 120
  %34 = load i8, ptr %33, align 8, !tbaa !32, !range !36, !noundef !37
  %35 = trunc nuw i8 %34 to i1
  br i1 %35, label %62, label %36

36:                                               ; preds = %32
  %37 = tail call i32 @pthread_mutex_lock(ptr noundef nonnull %31) #25
  %38 = icmp eq i32 %37, 35
  br i1 %38, label %39, label %pmix_obj_update.exit

39:                                               ; preds = %36
  %40 = tail call ptr @__errno_location() #27
  store i32 35, ptr %40, align 4, !tbaa !16
  tail call void @perror(ptr noundef nonnull @.str.71) #28
  tail call void @abort() #29
  unreachable

pmix_obj_update.exit:                             ; preds = %36
  %41 = getelementptr inbounds nuw i8, ptr %31, i64 48
  %42 = load i32, ptr %41, align 8, !tbaa !20
  %43 = add nsw i32 %42, -1
  store i32 %43, ptr %41, align 8, !tbaa !20
  %44 = tail call i32 @pthread_mutex_unlock(ptr noundef nonnull %31) #25
  %45 = icmp eq i32 %43, 0
  br i1 %45, label %46, label %62

46:                                               ; preds = %pmix_obj_update.exit
  %47 = getelementptr inbounds nuw i8, ptr %31, i64 40
  %48 = load ptr, ptr %47, align 8, !tbaa !19
  %49 = getelementptr inbounds nuw i8, ptr %48, i64 48
  %50 = load ptr, ptr %49, align 8, !tbaa !38
  %51 = load ptr, ptr %50, align 8, !tbaa !22
  %.not6.i = icmp eq ptr %51, null
  br i1 %.not6.i, label %pmix_obj_run_destructors.exit, label %.lr.ph.i

.lr.ph.i:                                         ; preds = %46, %.lr.ph.i
  %52 = phi ptr [ %54, %.lr.ph.i ], [ %51, %46 ]
  %.07.i = phi ptr [ %53, %.lr.ph.i ], [ %50, %46 ]
  tail call void %52(ptr noundef nonnull %31) #25
  %53 = getelementptr inbounds nuw i8, ptr %.07.i, i64 8
  %54 = load ptr, ptr %53, align 8, !tbaa !22
  %.not.i = icmp eq ptr %54, null
  br i1 %.not.i, label %pmix_obj_run_destructors.exit, label %.lr.ph.i, !llvm.loop !39

pmix_obj_run_destructors.exit:                    ; preds = %.lr.ph.i, %46
  %55 = getelementptr inbounds nuw i8, ptr %31, i64 96
  %56 = load ptr, ptr %55, align 8, !tbaa !40
  %.not15 = icmp eq ptr %56, null
  br i1 %.not15, label %60, label %57

57:                                               ; preds = %pmix_obj_run_destructors.exit
  %58 = getelementptr inbounds nuw i8, ptr %31, i64 56
  %59 = load ptr, ptr %30, align 8, !tbaa !31
  tail call void %56(ptr noundef nonnull %58, ptr noundef %59) #25
  br label %62

60:                                               ; preds = %pmix_obj_run_destructors.exit
  %61 = load ptr, ptr %30, align 8, !tbaa !31
  tail call void @free(ptr noundef %61) #25
  br label %62

62:                                               ; preds = %57, %60, %pmix_obj_update.exit, %29, %32, %27
  %63 = getelementptr inbounds nuw i8, ptr %11, i64 352
  store ptr null, ptr %63, align 8, !tbaa !31
  %64 = getelementptr inbounds nuw i8, ptr %11, i64 368
  store ptr null, ptr %64, align 8, !tbaa !29
  br label %var_get.exit.thread

var_get.exit.thread:                              ; preds = %pmix_pointer_array_get_item.exit.i, %4, %1, %17, %13, %62
  %.0 = phi i32 [ 0, %62 ], [ -27, %13 ], [ 0, %17 ], [ -27, %pmix_pointer_array_get_item.exit.i ], [ -27, %4 ], [ -1, %1 ]
  ret i32 %.0
}